MPASM 5.58  /HOME/LUIS/PROJECTS/MICRO/6-T2/G   9-26-2014  17:41:44         PAGE  1


LOC  OBJECT CODE     LINE SOURCE TEXT
  VALUE

                      00001 #include<p16f873.inc> ; define o pic a utilizar
                      00001         LIST
                      00002 
                      00003 ;==========================================================================
                      00004 ; Build date : Aug 07 2014
                      00005 ;  MPASM PIC16F873 processor include
                      00006 ; 
                      00007 ;  (c) Copyright 1999-2014 Microchip Technology, All rights reserved
                      00008 ;==========================================================================
                      00009 
Message[301]: MESSAGE: (Processor-header file mismatch.  Verify selected processor.)
                      00501         LIST
2007   3D39           00002         __config _XT_OSC & _WDT_OFF & _PWRTE_OFF & _CP_OFF & _BOREN_OFF & _LVP_OFF & _CPD_OFF & _DEBUG_O
                            FF & _WRT_OFF
                      00003         
                      00004         #define DEBUG                                   0x1
                      00005         #define byte_recebido_serial    0x21
                      00006         #define byte_enviar_serial              0x22
                      00007         #define th                                              0x23
                      00008         #define tl                                              0x24
                      00009         #define counter                                 0x25
                      00010 
                      00011         #define count_l                                 0x26
                      00012         #define count_h                                 0x27
                      00013         #define count_uh                                0x28
                      00014 
                      00015         ORG 0
0000   2???           00016         GOTO    start                              ; go to beginning of program
                      00017         ORG      4
                      00018         ; INTERRUPCOES :
                      00019         ; timer
                      00020 
0004                  00021 end_int:
0004   0009           00022         RETFIE
                      00023 
0005                  00024 start:
                      00025         ; configura todas as portas RB para output
0005   1683 1303      00026         BANKSEL TRISB
0007   3000           00027         MOVLW   B'00000000'      
Message[302]: Register in operand not in bank 0.  Ensure that bank bits are correct.
0008   0086           00028         MOVWF   TRISB
                      00029 
                      00030         ; ligar todas as saidas da porta b
0009   1283 1303      00031         BANKSEL PORTB
000B   30FF           00032         MOVLW   0xFF
000C   0086           00033         MOVWF   PORTB
                      00034 
                      00035         ; outras configuracoes
000D   2???           00036         CALL    configura_serial
                      00037         ;CALL   configura_timer
                      00038         
000E   2???           00039         GOTO    loop_pulsos
                      00040 
MPASM 5.58  /HOME/LUIS/PROJECTS/MICRO/6-T2/G   9-26-2014  17:41:44         PAGE  2


LOC  OBJECT CODE     LINE SOURCE TEXT
  VALUE

000F                  00041 espera_valor:
                      00042         ; espera os dados da serial
000F   2???           00043         CALL    leitura_serial
0010   0821           00044         MOVF    byte_recebido_serial, W
                      00045 
                      00046         ; menor que 78, espera outro
0011   3C4D           00047     SUBLW       D'77'
0012   1803           00048         BTFSC   STATUS, C
0013   2???           00049                 GOTO    espera_valor
                      00050         ; maior que 124, espera outro
0014   0823           00051         MOVF    th, w
0015   3C7C           00052         SUBLW   D'124'
0016   1C03           00053         BTFSS   STATUS, C
0017   2???           00054                 GOTO    espera_valor
                      00055         
                      00056         ; faz aritimética
0018   00A3           00057         MOVWF   th                                                      ; TH = valorRecebido
0019   307D           00058         MOVLW   d'125'
001A   0221           00059         SUBWF   byte_recebido_serial, W         ; W= 125-TH
001B   00A4           00060         MOVWF   tl                                                      ; TL = W (125-TH)
                      00061 
001C                  00062 loop_pulsos:
001C   2???           00063         CALL    pulsos_4
001D   2???           00064         GOTO    loop_pulsos
                      00065 
001E   2???           00066         GOTO    $       ; security loop forever
                      00067 
                      00068 ; ------------------------------ SECAO PULSOS -----------------------------
001F                  00069 pulsos_4:
001F   2???           00070                 CALL delay
Message[305]: Using default destination of 1 (file).
0020   0BA5           00071                 DECFSZ  counter
0021   2???           00072                         GOTO pulsos_4_end
                      00073 
                      00074                 ; encotra a fase atual
Message[305]: Using default destination of 1 (file).
0022   0F86           00075                 INCFSZ  PORTB ; se incrementar e for zero, era FF
0023   2???           00076                         GOTO    fase_baixa ; era ALTO e agora deve ser BAIXO
0024                  00077 fase_alta:
                      00078                 ; reinicia o contador de acordo com a fase
0024   0823           00079                 MOVF    th, W
0025   00A5           00080                 MOVWF   counter
                      00081 
                      00082                 ; configura a saida de acordo com a fase
0026   30FF           00083                 MOVLW   0xFF
0027   0086           00084                 MOVWF   PORTB
0028                  00085 fase_baixa:
                      00086                 ; reinicia o contador de acordo com a fase
0028   0824           00087                 MOVF    tl, W
0029   00A5           00088                 MOVWF   counter
                      00089 
                      00090                 ; configura a saida de acordo com a fase
002A   3000           00091                 MOVLW   0x00
MPASM 5.58  /HOME/LUIS/PROJECTS/MICRO/6-T2/G   9-26-2014  17:41:44         PAGE  3


LOC  OBJECT CODE     LINE SOURCE TEXT
  VALUE

002B   0086           00092                 MOVWF   PORTB
002C                  00093 pulsos_4_end:
002C   0008           00094         RETURN
                      00095 
                      00096 ; ------------------------------ SECAO SERIAL -----------------------------
002D                  00097 configura_serial:
                      00098                 ; TXSTA: TRANSMIT STATUS AND CONTROL REGISTER (ADDRESS 98h)
                      00099                 ; CSRC: Clock Source Select bit         = 0 (assincrono)
                      00100                 ; TX9: 9-bit Transmit Enable bit        = 0 (sem 9º bit)
                      00101                 ; TXEN: Transmit Enable bit                     = 1 (liga o tx)
                      00102                 ; SYNC: USART Mode Select bit           = 0 (assincrono)
                      00103                 ; U-0 :                                                         = 0     (n/a)
                      00104                 ; BRGH: High Baud Rate Select bit       = 1 (High speed)
                      00105                 ; TRMT: Transmit Status bit                     = 0 (read-only)
                      00106                 ; TX9D: 9th bit                                         = 0 (n/a)
                      00107                 ; TXSTA = 0010 0100
002D   1683 1303      00108                 BANKSEL TXSTA
002F   3024           00109                 MOVLW   B'00100100'
Message[302]: Register in operand not in bank 0.  Ensure that bank bits are correct.
0030   0098           00110                 MOVWF   TXSTA
                      00111 
                      00112                 ; RCSTA: RECEIVE STATUS AND CONTROL REGISTER (ADDRESS 18h)
                      00113                 ; SPEN: Serial Port Enable bit                  = 1 (enable)
                      00114                 ; RX9: 9-bit Receive Enable bit                 = 0 (sem 9º bit)
                      00115                 ; SREN: Single Receive Enable bit               = 0 (N/A)
                      00116                 ; CREN: Continuous Receive Enable bit   = 1 (continuous receive)
                      00117                 ; ADDEN: Address Detect Enable bit              = 0 (N/A)
                      00118                 ; FERR: Framing Error bit                               = 0 (read-only)
                      00119                 ; OERR: Overrun Error bit                               = 0 (read-only)
                      00120                 ; RX9D: 9th bit of Received Data                = 0 (read-only)
                      00121                 ; RCSTA = 1001 0000
0031   1283 1303      00122                 BANKSEL RCSTA
0033   3090           00123                 MOVLW   B'10010000'
0034   0098           00124                 MOVWF   RCSTA
                      00125 
                      00126                 ; SPBRG = 25
                      00127                 ; calculado para 9600 bps
0035   1683 1303      00128                 BANKSEL SPBRG
0037   3019           00129                 MOVLW   D'25'
Message[302]: Register in operand not in bank 0.  Ensure that bank bits are correct.
0038   0099           00130                 MOVWF   SPBRG
0039   0008           00131         RETURN
003A                  00132 leitura_serial:
003A   1283 1303      00133                 BANKSEL PIR1
                      00134                 ; registrador PIR1 contem as flags individuais de cada uma das
                      00135                 ; interrupcoes perifericas
                      00136                 ; bit RCIF indica se o buffer de entrada esta cheio
                      00137                 ; (entrada serial)
003C                  00138 espera_leitura_serial:
003C   1E8C           00139                 BTFSS   PIR1,   RCIF                    ; se bit RCIF do registrador PIR1
                      00140                                                                                 ; ou seja, se tem coisa 
                            a ler
003D   2???           00141                 GOTO    espera_leitura_serial   ; nao chegou byte
MPASM 5.58  /HOME/LUIS/PROJECTS/MICRO/6-T2/G   9-26-2014  17:41:44         PAGE  4


LOC  OBJECT CODE     LINE SOURCE TEXT
  VALUE

003E   1283 1303      00142                 BANKSEL RCREG
0040   081A           00143                 MOVF    RCREG, W                                ; chegou byte
                      00144                 ;BANKSEL        byte_recebido_serial
0041   1283           00145                 BCF             STATUS,         RP0
0042   1303           00146                 BCF             STATUS,         RP1
0043   00A1           00147                 MOVWF   byte_recebido_serial
0044   0008           00148         RETURN
0045                  00149 escrita_serial:
                      00150                 ; TXSTA:        transmit status and control register
                      00151                 ; TRMT:  bit de buffer de escrita cheio
0045   1683 1303      00152                 BANKSEL TXSTA
                      00153                 ; caso ainda nao tenha enviado o que esta no buffer
                      00154                 ; espera o envio (anterior)
0047                  00155 espera_escrita_serial:
                      00156                 ;TRMT: Transmit Shift Register Status bit
                      00157                 ;1 = TSR empty
                      00158                 ;0 = TSR full
Message[302]: Register in operand not in bank 0.  Ensure that bank bits are correct.
0047   1C98           00159                 BTFSS   TXSTA, TRMT                             ; TRMT == 1? ;
0048   2???           00160                 GOTO    espera_escrita_serial   ; buffer cheio, espere
                      00161                 ;BANKSEL        byte_enviar_serial
0049   1283           00162                 BCF             STATUS, RP0
004A   1303           00163                 BCF             STATUS, RP1
004B   0822           00164                 MOVF    byte_enviar_serial,     W       ; pega a variavel
004C   1283 1303      00165                 BANKSEL TXREG
004E   0099           00166                 MOVWF   TXREG                                   ; escreve a variavel para o buffer
004F   0008           00167         RETURN
                      00168 ; ------------------------------ SECAO TIMER -----------------------------
0050                  00169 configura_timer:
                      00170                 ; T = 1ms
                      00171                 ; Fint = 1000 Hz
                      00172                 ; Prescaler = 2:1 (000)
                      00173                 ; TRM0 = 131
                      00174 
                      00175                 ; ATIVA O TIMER
                      00176                 ; OPTION_REG: control bits to configure
                      00177                 ;       the TMR0 prescaler/WDT postscaler (single assign-
                      00178                 ;       able register known also as the prescaler), the External
                      00179                 ;       INT Interrupt, TMR0 and the weak pull-ups on PORTB.
                      00180                 ;       (ADDRESS 81h, 181h)
                      00181                 ;
                      00182                 ; RBPU: PORTB Pull-up Enable bit                = 0 (PORTB pull-ups are enabled by indiv
                            idual port latch values)
                      00183                 ; INTEDG: Interrupt Edge Select bit             = 0 (Interrupt on falling edge of RB0/IN
                            T pin)
                      00184                 ; T0CS: TMR0 Clock Source Select bit    = 0 (Internal instruction cycle clock CLKOUT)
                      00185                 ; T0SE: TMR0 Source Edge Select bit             = 0 (assincrono)
                      00186                 ; PSA: Prescaler Assignment bit                 = 0 (Prescaler is assigned to the Timer0
                             module)
                      00187                 ; PS2:PS0: Prescaler Rate Select bits   = (1:2)
                      00188                 ; PS2                                                                   = 0
                      00189                 ; PS1                                                                   = 0
                      00190                 ; PS0                                                                   = 0
MPASM 5.58  /HOME/LUIS/PROJECTS/MICRO/6-T2/G   9-26-2014  17:41:44         PAGE  5


LOC  OBJECT CODE     LINE SOURCE TEXT
  VALUE

0050   1683 1303      00191                 BANKSEL OPTION_REG
0052   3000           00192                 MOVLW   B'00000000'
Message[302]: Register in operand not in bank 0.  Ensure that bank bits are correct.
0053   0081           00193                 MOVWF   OPTION_REG
                      00194 
                      00195                 ; CONFIGURA A INTERRUPÇÃO
                      00196                 ; INTCON: (ADDRESS 0Bh, 8Bh, 10Bh, 18Bh)
                      00197                 ;       enable and flag bits for the
                      00198                 ;       TMR0 register overflow, RB Port change and External
                      00199                 ;       RB0/INT pin interrupts.
                      00200                 ; GIE: Global Interrupt Enable bit                              = 1 (Enables all unmaske
                            d interrupts)
                      00201                 ; PEIE: Peripheral Interrupt Enable bit                 = x
                      00202                 ; T0IE: TMR0 Overflow Interrupt Enable bit              = 1 (Enables the TMR0 interrupt)
                      00203                 ; INTE: RB0/INT External Interrupt Enable bit   = x
                      00204                 ; RBIE: RB Port Change Interrupt Enable bit             = x
                      00205                 ; T0IF: TMR0 Overflow Interrupt Flag bit                = 0
                      00206                 ; INTF: RB0/INT External Interrupt Flag bit             = x (The RB0/INT external interr
                            upt did not occur)
                      00207                 ; RBIF: RB Port Change Interrupt Flag bit               = x (None of the RB7:RB4 pins ha
                            ve changed state)
                      00208                 ; INTCON = 1010 0000
0054   1283 1303      00209                 BANKSEL INTCON
0056   30A0           00210                 MOVLW   B'10100000'
0057   008B           00211                 MOVWF   INTCON
                      00212 
                      00213                 ; FREQUENCIA DE INTERRUPÇAO DO TIMER
                      00214                 ; (1MHz/4)/64[prescaler]
                      00215                 ; -----------------------
                      00216                 ;               (256 - TMR0)
0058   1283 1303      00217                 BANKSEL TMR0
005A   3083           00218                 MOVLW   D'131'
005B   0081           00219                 MOVWF   TMR0
005C   0008           00220         RETURN
                      00221 
005D                  00222 delay:
005D   00A8           00223                 MOVWF   count_uh
005E                  00224 delay_loop_uh:
005E   30FF           00225                 MOVLW   0xff
005F   00A7           00226                 MOVWF   count_h
0060   1283 1303      00227                 BANKSEL PORTB
0062   0086           00228                 MOVWF   PORTB
                      00229                 ; BANKSEL       count_h
0063   1283           00230                 BCF             STATUS, RP0
0064   1303           00231                 BCF             STATUS, RP1
0065                  00232 delay_loop_h:
0065   30FF           00233                 MOVLW   0xff
0066   00A6           00234                 MOVWF   count_l
0067                  00235 delay_loop_l:
Message[305]: Using default destination of 1 (file).
0067   0BA6           00236                 DECFSZ  count_l
0068   2???           00237                 GOTO    delay_loop_l
Message[305]: Using default destination of 1 (file).
MPASM 5.58  /HOME/LUIS/PROJECTS/MICRO/6-T2/G   9-26-2014  17:41:44         PAGE  6


LOC  OBJECT CODE     LINE SOURCE TEXT
  VALUE

0069   0BA7           00238                 DECFSZ  count_h
006A   2???           00239                 GOTO    delay_loop_h
Message[305]: Using default destination of 1 (file).
006B   0BA8           00240                 DECFSZ  count_uh
006C   2???           00241                 GOTO    delay_loop_uh
006D   0008           00242         RETURN
                      00243 
006E   2???           00244         GOTO    $       ; security loop forever
3D39                  00245         END
MPASM 5.58  /HOME/LUIS/PROJECTS/MICRO/6-T2/G   9-26-2014  17:41:44         PAGE  7


SYMBOL TABLE
  LABEL                             VALUE 

ACKDT                             00000005
ACKEN                             00000004
ACKSTAT                           00000006
ADCON0                            0000001F
ADCON1                            0000009F
ADCS0                             00000006
ADCS1                             00000007
ADDEN                             00000003
ADFM                              00000007
ADIE                              00000006
ADIF                              00000006
ADON                              00000000
ADRESH                            0000001E
ADRESL                            0000009E
BCLIE                             00000003
BCLIF                             00000003
BF                                00000000
BRGH                              00000002
C                                 00000000
CCP1CON                           00000017
CCP1IE                            00000002
CCP1IF                            00000002
CCP1M0                            00000000
CCP1M1                            00000001
CCP1M2                            00000002
CCP1M3                            00000003
CCP1X                             00000005
CCP1Y                             00000004
CCP2CON                           0000001D
CCP2IE                            00000000
CCP2IF                            00000000
CCP2M0                            00000000
CCP2M1                            00000001
CCP2M2                            00000002
CCP2M3                            00000003
CCP2X                             00000005
CCP2Y                             00000004
CCPR1                             00000015
CCPR1H                            00000016
CCPR1L                            00000015
CCPR2                             0000001B
CCPR2H                            0000001C
CCPR2L                            0000001B
CHS0                              00000003
CHS1                              00000004
CHS2                              00000005
CKE                               00000006
CKP                               00000004
CREN                              00000004
CSRC                              00000007
D                                 00000005
DATA_ADDRESS                      00000005
DC                                00000001
MPASM 5.58  /HOME/LUIS/PROJECTS/MICRO/6-T2/G   9-26-2014  17:41:44         PAGE  8


SYMBOL TABLE
  LABEL                             VALUE 

DEBUG                             0x1
D_A                               00000005
D_NOT_A                           00000005
EEADR                             0000010D
EEADRH                            0000010F
EECON1                            0000018C
EECON2                            0000018D
EEDATA                            0000010C
EEDATH                            0000010E
EEIE                              00000004
EEIF                              00000004
EEPGD                             00000007
F                                 00000001
FERR                              00000002
FSR                               00000004
GCEN                              00000007
GIE                               00000007
GO                                00000002
GO_DONE                           00000002
GO_NOT_DONE                       00000002
I2C_DATA                          00000005
I2C_READ                          00000002
I2C_START                         00000003
I2C_STOP                          00000004
INDF                              00000000
INTCON                            0000000B
INTE                              00000004
INTEDG                            00000006
INTF                              00000001
IRP                               00000007
NOT_A                             00000005
NOT_ADDRESS                       00000005
NOT_BO                            00000000
NOT_BOR                           00000000
NOT_DONE                          00000002
NOT_PD                            00000003
NOT_POR                           00000001
NOT_RBPU                          00000007
NOT_RC8                           00000006
NOT_T1SYNC                        00000002
NOT_TO                            00000004
NOT_TX8                           00000006
NOT_W                             00000002
NOT_WRITE                         00000002
OERR                              00000001
OPTION_REG                        00000081
P                                 00000004
PCFG0                             00000000
PCFG1                             00000001
PCFG2                             00000002
PCFG3                             00000003
PCL                               00000002
PCLATH                            0000000A
MPASM 5.58  /HOME/LUIS/PROJECTS/MICRO/6-T2/G   9-26-2014  17:41:44         PAGE  9


SYMBOL TABLE
  LABEL                             VALUE 

PCON                              0000008E
PEIE                              00000006
PEN                               00000002
PIE1                              0000008C
PIE2                              0000008D
PIR1                              0000000C
PIR2                              0000000D
PORTA                             00000005
PORTB                             00000006
PORTC                             00000007
PR2                               00000092
PS0                               00000000
PS1                               00000001
PS2                               00000002
PSA                               00000003
R                                 00000002
RA0                               00000000
RA1                               00000001
RA2                               00000002
RA3                               00000003
RA4                               00000004
RA5                               00000005
RB0                               00000000
RB1                               00000001
RB2                               00000002
RB3                               00000003
RB4                               00000004
RB5                               00000005
RB6                               00000006
RB7                               00000007
RBIE                              00000003
RBIF                              00000000
RC0                               00000000
RC1                               00000001
RC2                               00000002
RC3                               00000003
RC4                               00000004
RC5                               00000005
RC6                               00000006
RC7                               00000007
RC8_9                             00000006
RC9                               00000006
RCD8                              00000000
RCEN                              00000003
RCIE                              00000005
RCIF                              00000005
RCREG                             0000001A
RCSTA                             00000018
RD                                00000000
READ_WRITE                        00000002
RP0                               00000005
RP1                               00000006
RSEN                              00000001
MPASM 5.58  /HOME/LUIS/PROJECTS/MICRO/6-T2/G   9-26-2014  17:41:44         PAGE 10


SYMBOL TABLE
  LABEL                             VALUE 

RX9                               00000006
RX9D                              00000000
R_NOT_W                           00000002
R_W                               00000002
S                                 00000003
SEN                               00000000
SMP                               00000007
SPBRG                             00000099
SPEN                              00000007
SREN                              00000005
SSPADD                            00000093
SSPBUF                            00000013
SSPCON                            00000014
SSPCON2                           00000091
SSPEN                             00000005
SSPIE                             00000003
SSPIF                             00000003
SSPM0                             00000000
SSPM1                             00000001
SSPM2                             00000002
SSPM3                             00000003
SSPOV                             00000006
SSPSTAT                           00000094
STATUS                            00000003
SYNC                              00000004
T0CS                              00000005
T0IE                              00000005
T0IF                              00000002
T0SE                              00000004
T1CKPS0                           00000004
T1CKPS1                           00000005
T1CON                             00000010
T1INSYNC                          00000002
T1OSCEN                           00000003
T1SYNC                            00000002
T2CKPS0                           00000000
T2CKPS1                           00000001
T2CON                             00000012
TMR0                              00000001
TMR0IE                            00000005
TMR0IF                            00000002
TMR1                              0000000E
TMR1CS                            00000001
TMR1H                             0000000F
TMR1IE                            00000000
TMR1IF                            00000000
TMR1L                             0000000E
TMR1ON                            00000000
TMR2                              00000011
TMR2IE                            00000001
TMR2IF                            00000001
TMR2ON                            00000002
TOUTPS0                           00000003
MPASM 5.58  /HOME/LUIS/PROJECTS/MICRO/6-T2/G   9-26-2014  17:41:44         PAGE 11


SYMBOL TABLE
  LABEL                             VALUE 

TOUTPS1                           00000004
TOUTPS2                           00000005
TOUTPS3                           00000006
TRISA                             00000085
TRISA0                            00000000
TRISA1                            00000001
TRISA2                            00000002
TRISA3                            00000003
TRISA4                            00000004
TRISA5                            00000005
TRISB                             00000086
TRISB0                            00000000
TRISB1                            00000001
TRISB2                            00000002
TRISB3                            00000003
TRISB4                            00000004
TRISB5                            00000005
TRISB6                            00000006
TRISB7                            00000007
TRISC                             00000087
TRISC0                            00000000
TRISC1                            00000001
TRISC2                            00000002
TRISC3                            00000003
TRISC4                            00000004
TRISC5                            00000005
TRISC6                            00000006
TRISC7                            00000007
TRMT                              00000001
TX8_9                             00000006
TX9                               00000006
TX9D                              00000000
TXD8                              00000000
TXEN                              00000005
TXIE                              00000004
TXIF                              00000004
TXREG                             00000019
TXSTA                             00000098
UA                                00000001
W                                 00000000
WCOL                              00000007
WR                                00000001
WREN                              00000002
WRERR                             00000003
Z                                 00000002
_.org_1_001E                      0000001E
_.org_1_006E                      0000006E
_BODEN_OFF                        00003FBF
_BODEN_ON                         00003FFF
_BOREN_OFF                        00003FBF
_BOREN_ON                         00003FFF
_CONFIG                           00002007
_CPD_OFF                          00003FFF
MPASM 5.58  /HOME/LUIS/PROJECTS/MICRO/6-T2/G   9-26-2014  17:41:44         PAGE 12


SYMBOL TABLE
  LABEL                             VALUE 

_CPD_ON                           00003EFF
_CP_ALL                           00000FCF
_CP_HALF                          00001FDF
_CP_OFF                           00003FFF
_CP_UPPER_256                     00002FEF
_DEBUG_OFF                        00003FFF
_DEBUG_ON                         000037FF
_DEVID1                           00002006
_FOSC_EXTRC                       00003FFF
_FOSC_HS                          00003FFE
_FOSC_LP                          00003FFC
_FOSC_XT                          00003FFD
_HS_OSC                           00003FFE
_IDLOC0                           00002000
_IDLOC1                           00002001
_IDLOC2                           00002002
_IDLOC3                           00002003
_LP_OSC                           00003FFC
_LVP_OFF                          00003F7F
_LVP_ON                           00003FFF
_PWRTE_OFF                        00003FFF
_PWRTE_ON                         00003FF7
_RC_OSC                           00003FFF
_WDTE_OFF                         00003FFB
_WDTE_ON                          00003FFF
_WDT_OFF                          00003FFB
_WDT_ON                           00003FFF
_WRT_ENABLE_OFF                   00003DFF
_WRT_ENABLE_ON                    00003FFF
_WRT_OFF                          00003DFF
_WRT_ON                           00003FFF
_XT_OSC                           00003FFD
__16F873A                         00000001
byte_enviar_serial                0x22
byte_recebido_serial              0x21
configura_serial                  0000002D
configura_timer                   00000050
count_h                           0x27
count_l                           0x26
count_uh                          0x28
counter                           0x25
delay                             0000005D
delay_loop_h                      00000065
delay_loop_l                      00000067
delay_loop_uh                     0000005E
end_int                           00000004
escrita_serial                    00000045
espera_escrita_serial             00000047
espera_leitura_serial             0000003C
espera_valor                      0000000F
fase_alta                         00000024
fase_baixa                        00000028
leitura_serial                    0000003A
MPASM 5.58  /HOME/LUIS/PROJECTS/MICRO/6-T2/G   9-26-2014  17:41:44         PAGE 13


SYMBOL TABLE
  LABEL                             VALUE 

loop_pulsos                       0000001C
pulsos_4                          0000001F
pulsos_4_end                      0000002C
start                             00000005
th                                0x23
tl                                0x24

Errors   :     0
Warnings :     0 reported,     0 suppressed
Messages :    11 reported,     0 suppressed

